(dp0
S'album'
p1
(dp2
S''
p3
I0
sS'25'
p4
I1
sS'Water Under the Bridge'
p5
I9
sS'Send My Love ( To Your New Lover )'
p6
I8
sS'Set Fire to the Rain'
p7
I5
sS'21'
p8
I6
sS'19'
p9
I4
sS'The Best Damn Thing'
p10
I2
sS'Goodbye Lullaby'
p11
I3
sS'Send My Love (To Your New Lover)'
p12
I7
ssS'singer'
p13
(dp14
g3
I0
sS'Avril Lavigne'
p15
I3
sS'Avril'
p16
I1
sS'Adele'
p17
I2
ssS'goal'
p18
(dp19
g3
I0
sS'request_singer'
p20
I3
sS'play_song'
p21
I1
sS'request_lyrics'
p22
I2
ssS'song'
p23
(dp24
g3
I0
sS'When We Were Young'
p25
I47
sS'Hometown Glory (Live at Hotel Cafe)'
p26
I58
sS'One of Those Girls'
p27
I46
sS'Black Star'
p28
I34
sS'4 Real'
p29
I1
sS'Set Fire to the Rain (Thomas Gold Dub)'
p30
I63
sS'Everything Back But You'
p31
I16
sS'Set Fire to the Rain ( Moto Blanco Edit )'
p32
I70
sS'I Can Do Better - Acoustic Version'
p33
I8
sS'Set Fire to the Rain ( Thomas Gold Remix )'
p34
I99
sS'Smile'
p35
I11
sS"Don ' t You Remember"
p36
I25
sS'Sweetest Devotion'
p37
I48
sS'What the Hell'
p38
I6
sS'Love In The Dark'
p39
I103
sS'Many Shades of Black'
p40
I42
sS'Avril'
p41
I51
sS'My Same ( Live at Hotel Cafe )'
p42
I79
sS'Set Fire to the Rain (Moto Blanco Remix)'
p43
I61
sS'Make You Feel My Love ( Live at Hotel Cafe )'
p44
I107
sS'Lovesong'
p45
I53
sS'I Quit'
p46
I10
sS'Right as Rain (Live at Hotel Cafe)'
p47
I87
sS'\xe5\xa4\xa7\xe5\xb8\xa5\xe5\x93\xa5'
p48
I23
sS'My Same (Live at Hotel Cafe)'
p49
I78
sS'Best for Last'
p50
I33
sS"That ' s It"
p51
I91
sS'Make You Feel My Love (Live at Hotel Cafe)'
p52
I106
sS'Girlfriend - Dr . Luke mix featuring Lil Mama'
p53
I40
sS'Avril Girlfriend - Dr . Luke mix featuring Lil Mama'
p54
I116
sS'Melt My Heart to Stone (Live at Hotel Cafe)'
p55
I4
sS'Send My Love (To Your New Lover)'
p56
I44
sS'River Lea'
p57
I37
sS'One And Only'
p58
I9
sS'I Love You'
p59
I76
sS'Send My Love ( To Your New Lover )'
p60
I45
sS"When You ' re Gone"
p61
I55
sS'Melt My Heart to Stone ( Live at Hotel Cafe )'
p62
I5
sS'Push'
p63
I56
sS'The Best Damn Thing'
p64
I65
sS'Right as Rain ( Live at Hotel Cafe )'
p65
I88
sS'Someone Like You'
p66
I77
sS'Rolling In The Deep'
p67
I3
sS'Crazy for You'
p68
I71
sS'Tired'
p69
I7
sS'Chasing Pavements'
p70
I72
sS'I Can Do Better'
p71
I67
sS'\xe6\x9d\x8e\xe7\x90\xb3\xe5\xb1\xb1'
p72
I15
sS'Take It All'
p73
I81
sS'Chasing Pavements (Live at Hotel Cafe)'
p74
I12
sS'Set Fire to the Rain ( Thomas Gold Dub )'
p75
I64
sS'Daydreamer (Live at Hotel Cafe)'
p76
I104
sS'Adele'
p77
I60
sS'Melt My Heart to Stone'
p78
I35
sS"I Don't Have To Try"
p79
I19
sS'Adele Make You Feel My Love ( Live at Hotel Cafe )'
p80
I113
sS'Darlin'
p81
I73
sS'Set Fire To The Rain'
p82
I94
sS"Don't You Remember"
p83
I24
sS'Wish You Were Here'
p84
I62
sS'Adele Melt My Heart to Stone ( Live at Hotel Cafe )'
p85
I97
sS"Avril Girlfriend - The Submarines ' Time Warp ' 66"
p86
I111
sS'Rumour Has It'
p87
I66
sS'Crazy for You (Live at Hotel Cafe)'
p88
I17
sS'I Miss You'
p89
I114
sS"I ' ll Be Waiting"
p90
I22
sS'Hot'
p91
I36
sS"That's It"
p92
I90
sS'Set Fire to the Rain (Thomas Gold Remix)'
p93
I98
sS"Girlfriend - The Submarines ' Time Warp ' 66"
p94
I96
sS"Girlfriend - The Submarines' Time Warp '66 Mix - English"
p95
I95
sS'Everybody Hurts'
p96
I32
sS'My Same'
p97
I109
sS'Daydreamer'
p98
I57
sS"I'll Be Waiting"
p99
I21
sS'Contagious'
p100
I31
sS'Set Fire to the Rain (Moto Blanco Edit)'
p101
I52
sS"He Won ' t Go"
p102
I75
sS'First Love'
p103
I115
sS'Chasing Pavements ( Live at Hotel Cafe )'
p104
I13
sS'Remember When'
p105
I68
sS'Million Years Ago'
p106
I14
sS'Remedy'
p107
I27
sS'Not Enough'
p108
I50
sS'Innocence'
p109
I43
sS'Alone'
p110
I108
sS'\xe5\xa6\xb9\xe5\xad\x90'
p111
I85
sS'Water Under the Bridge'
p112
I2
sS'Keep Holding On'
p113
I41
sS'Turning Tables'
p114
I101
sS'Make You Feel My Love'
p115
I30
sS'Crazy for You ( Live at Hotel Cafe )'
p116
I18
sS'Daydreamer ( Live at Hotel Cafe )'
p117
I105
sS'Stop Standing There'
p118
I28
sS'\xe8\x82\x9a\xe5\xad\x90 \xe9\xa4\x93'
p119
I100
sS'Girlfriend'
p120
I86
sS'All I Ask'
p121
I29
sS'Alice - Extended Version'
p122
I112
sS'Goodbye'
p123
I69
sS'Hometown Glory ( Live at Hotel Cafe )'
p124
I59
sS"Adele I ' m Movin ' On ( Live at Hotel Cafe )"
p125
I93
sS"I ' m Movin ' On ( Live at Hotel Cafe )"
p126
I84
sS'Water Under The Bridge'
p127
I49
sS'Hello'
p128
I92
sS'I Will Be'
p129
I38
sS'Set Fire to the Rain ( Moto Blanco Remix )'
p130
I82
sS"I'm Movin' On (Live at Hotel Cafe)"
p131
I83
sS"He Won't Go"
p132
I74
sS"Girlfriend - The Submarines ' Time Warp ' 66 Mix - English"
p133
I102
sS"When You're Gone"
p134
I54
sS'Cold Shoulder'
p135
I80
sS'Runaway'
p136
I89
sS'Hometown Glory'
p137
I26
sS'Right As Rain'
p138
I110
sS"I Don ' t Have To Try"
p139
I20
sS'Girlfriend - Dr. Luke mix featuring Lil Mama'
p140
I39
ssS'playlist'
p141
(dp142
g3
I0
ssS'adjective'
p143
(dp144
g3
I0
ssS'action'
p145
(dp146
g3
I0
sS'play'
p147
I2
sS'repeat'
p148
I5
sS'reqmore'
p149
I7
sS'welcomemsg'
p150
I1
sS'confirm'
p151
I6
sS'canthear'
p152
I4
sS'offer'
p153
I8
sS'request'
p154
I3
ss.